target datalayout = "e-m:e-p270:32:32-p271:32:32-p272:64:64-i64:64-i128:128-f80:128-n8:16:32:64-S128"
target triple = "x86_64-pc-linux-gnu"

; Function Attrs: nounwind uwtable
define i32 @Cudd_MinHammingDist(ptr noundef %0, ptr noundef %1, ptr noundef %2, i32 noundef %3) #0 {
  %5 = alloca i32, align 4
  %6 = alloca ptr, align 8
  %7 = alloca ptr, align 8
  %8 = alloca ptr, align 8
  %9 = alloca i32, align 4
  %10 = alloca ptr, align 8
  %11 = alloca double, align 8
  %12 = alloca i32, align 4
  store ptr %0, ptr %6, align 8
  store ptr %1, ptr %7, align 8
  store ptr %2, ptr %8, align 8
  store i32 %3, ptr %9, align 4
  %13 = load ptr, ptr %6, align 8
  %14 = call ptr @cuddHashTableInit(ptr noundef %13, i32 noundef 1, i32 noundef 2)
  store ptr %14, ptr %10, align 8
  %15 = load ptr, ptr %10, align 8
  %16 = icmp eq ptr %15, null
  br i1 %16, label %17, label %18

17:                                               ; preds = %4
  store i32 -1, ptr %5, align 4
  br label %31

18:                                               ; preds = %4
  %19 = load ptr, ptr %6, align 8
  %20 = call double @Cudd_ReadEpsilon(ptr noundef %19)
  store double %20, ptr %11, align 8
  %21 = load ptr, ptr %6, align 8
  call void @Cudd_SetEpsilon(ptr noundef %21, double noundef 0.000000e+00)
  %22 = load ptr, ptr %7, align 8
  %23 = load ptr, ptr %8, align 8
  %24 = load ptr, ptr %10, align 8
  %25 = load i32, ptr %9, align 4
  %26 = call i32 @cuddMinHammingDistRecur(ptr noundef %22, ptr noundef %23, ptr noundef %24, i32 noundef %25)
  store i32 %26, ptr %12, align 4
  %27 = load ptr, ptr %10, align 8
  call void @cuddHashTableQuit(ptr noundef %27)
  %28 = load ptr, ptr %6, align 8
  %29 = load double, ptr %11, align 8
  call void @Cudd_SetEpsilon(ptr noundef %28, double noundef %29)
  %30 = load i32, ptr %12, align 4
  store i32 %30, ptr %5, align 4
  br label %31

31:                                               ; preds = %18, %17
  %32 = load i32, ptr %5, align 4
  ret i32 %32
}