; Function Attrs: nounwind uwtable
define i32 @Cudd_MinHammingDist(ptr noundef %0, ptr noundef %1, ptr noundef %2, i32 noundef %3) local_unnamed_addr #0 {
  %5 = tail call ptr @cuddHashTableInit(ptr noundef %0, i32 noundef 1, i32 noundef 2) #6
  %6 = icmp eq ptr %5, null
  br i1 %6, label %10, label %7

7:                                                ; preds = %4
  %8 = tail call double @Cudd_ReadEpsilon(ptr noundef %0) #6
  tail call void @Cudd_SetEpsilon(ptr noundef %0, double noundef 0.000000e+00) #6
  %9 = tail call fastcc i32 @cuddMinHammingDistRecur(ptr noundef %1, ptr noundef %2, ptr noundef %5, i32 noundef %3)
  tail call void @cuddHashTableQuit(ptr noundef nonnull %5) #6
  tail call void @Cudd_SetEpsilon(ptr noundef %0, double noundef %8) #6
  br label %10

10:                                               ; preds = %4, %7
  %.0 = phi i32 [ %9, %7 ], [ -1, %4 ]
  ret i32 %.0
}